target datalayout = "e-m:e-p270:32:32-p271:32:32-p272:64:64-i64:64-i128:128-f80:128-n8:16:32:64-S128"
target triple = "x86_64-unknown-linux-gnu"

%class.mpz = type { i32, i8, ptr }
%class.svector = type { %class.vector }
%class.vector = type { ptr }
%"class.polynomial::manager" = type { ptr }
%"struct.polynomial::manager::imp" = type { ptr, ptr, %class.mpzzp_manager, %"class.upolynomial::manager", ptr, %class.ptr_vector, %class.id_gen, ptr, ptr, %class.mpz, ptr, %"class.polynomial::monomial2pos", %"class.polynomial::tmp_monomial", %class.svector.1, %class.svector.1, %class.ptr_vector.4, %class.svector, i8, i8, %"class.polynomial::manager::imp::som_buffer", %"class.polynomial::manager::imp::som_buffer", %"class.polynomial::manager::imp::cheap_som_buffer", %"class.polynomial::manager::imp::cheap_som_buffer", %class.vector.6, %class.svector, %class.svector.7, %class.svector, %"class.polynomial::manager::imp::som_buffer_vector", %"class.polynomial::manager::imp::newton_interpolator_vector", %class.scoped_ptr_vector, %"class.polynomial::manager::imp::var_max_degree", %"struct.polynomial::manager::imp::var_pos", %"class.polynomial::manager::imp::som_buffer_vector" }
%class.mpzzp_manager = type { ptr, i8, %class.mpz, %class.mpz, %class.mpz, i8, %class.mpz, %class.mpz, %class.mpz, %class.mpz }
%"class.upolynomial::manager" = type { %"class.upolynomial::core_manager", %class.svector.1, %class.svector.1, %class.svector.1, %class.svector.1, %class.svector.1 }
%"class.upolynomial::core_manager" = type { ptr, %class.mpzzp_manager, %class.svector.1, %class.svector.1, %class.svector.1, %class.svector.1, %class.svector.1, %class.svector.1, %class.svector.1, [6 x %class.svector.1], %class.svector.1, %class.svector.1, %class.svector.1 }
%class.ptr_vector = type { %class.vector.3 }
%class.vector.3 = type { ptr }
%class.id_gen = type { i32, %class.svector }
%"class.polynomial::monomial2pos" = type { %class.svector }
%"class.polynomial::tmp_monomial" = type <{ ptr, i32, [4 x i8] }>
%class.svector.1 = type { %class.vector.2 }
%class.vector.2 = type { ptr }
%class.ptr_vector.4 = type { %class.vector.5 }
%class.vector.5 = type { ptr }
%"class.polynomial::manager::imp::som_buffer" = type { ptr, %"class.polynomial::monomial2pos", %class.svector.1, %class.ptr_vector.4 }
%"class.polynomial::manager::imp::cheap_som_buffer" = type { ptr, %class.svector.1, %class.ptr_vector.4 }
%class.vector.6 = type { ptr }
%class.svector.7 = type { %class.vector.8 }
%class.vector.8 = type { ptr }
%"class.polynomial::manager::imp::newton_interpolator_vector" = type { ptr, %class.ptr_vector.11 }
%class.ptr_vector.11 = type { %class.vector.12 }
%class.vector.12 = type { ptr }
%class.scoped_ptr_vector = type { %class.ptr_vector.13 }
%class.ptr_vector.13 = type { %class.vector.14 }
%class.vector.14 = type { ptr }
%"class.polynomial::manager::imp::var_max_degree" = type { %class.svector, %class.svector }
%"struct.polynomial::manager::imp::var_pos" = type { %class.svector }
%"class.polynomial::manager::imp::som_buffer_vector" = type { ptr, %class.ptr_vector.9 }
%class.ptr_vector.9 = type { %class.vector.10 }
%class.vector.10 = type { ptr }

; Function Attrs: mustprogress nounwind uwtable
define linkonce_odr hidden void @_ZN6vectorI3mpzLb0EjE5resetEv(ptr noundef nonnull align 8 dereferenceable(8) %this) #4 comdat align 2 {
entry:
  %this.addr = alloca ptr, align 8
  store ptr %this, ptr %this.addr, align 8
  %this1 = load ptr, ptr %this.addr, align 8
  %m_data = getelementptr inbounds %class.vector.2, ptr %this1, i32 0, i32 0
  %0 = load ptr, ptr %m_data, align 8
  %tobool = icmp ne ptr %0, null
  br i1 %tobool, label %if.then, label %if.end

if.then:                                          ; preds = %entry
  %m_data2 = getelementptr inbounds %class.vector.2, ptr %this1, i32 0, i32 0
  %1 = load ptr, ptr %m_data2, align 8
  %arrayidx = getelementptr inbounds i32, ptr %1, i64 -1
  store i32 0, ptr %arrayidx, align 4
  br label %if.end

if.end:                                           ; preds = %if.then, %entry
  ret void
}

; Function Attrs: mustprogress nounwind uwtable
define linkonce_odr hidden void @_ZN10polynomial7manager3imp13reset_tmp_as2Ev(ptr noundef nonnull align 8 dereferenceable(824) %this) #4 comdat align 2 {
entry:
  %this.addr = alloca ptr, align 8
  store ptr %this, ptr %this.addr, align 8
  %this1 = load ptr, ptr %this.addr, align 8
  %m_rat2numeral = getelementptr inbounds %"struct.polynomial::manager::imp", ptr %this1, i32 0, i32 13
  call void @_ZN6vectorI3mpzLb0EjE5resetEv(ptr noundef nonnull align 8 dereferenceable(8) %m_rat2numeral)
  ret void
}

; Function Attrs: mustprogress nounwind uwtable
define linkonce_odr hidden noundef ptr @_ZNK6vectorI3mpzLb0EjE4dataEv(ptr noundef nonnull align 8 dereferenceable(8) %this) #4 comdat align 2 {
entry:
  %this.addr = alloca ptr, align 8
  store ptr %this, ptr %this.addr, align 8
  %this1 = load ptr, ptr %this.addr, align 8
  %m_data = getelementptr inbounds %class.vector.2, ptr %this1, i32 0, i32 0
  %0 = load ptr, ptr %m_data, align 8
  ret ptr %0
}

; Function Attrs: mustprogress uwtable
define linkonce_odr hidden noundef ptr @_ZN10polynomial7manager3imp13mk_polynomialEjPK8rationalPKPNS_8monomialE(ptr noundef nonnull align 8 dereferenceable(824) %this, i32 noundef %sz, ptr noundef %as, ptr noundef %ms) #5 comdat align 2 {
entry:
  %this.addr = alloca ptr, align 8
  %sz.addr = alloca i32, align 4
  %as.addr = alloca ptr, align 8
  %ms.addr = alloca ptr, align 8
  %p = alloca ptr, align 8
  store ptr %this, ptr %this.addr, align 8
  store i32 %sz, ptr %sz.addr, align 4
  store ptr %as, ptr %as.addr, align 8
  store ptr %ms, ptr %ms.addr, align 8
  %this1 = load ptr, ptr %this.addr, align 8
  %0 = load i32, ptr %sz.addr, align 4
  %1 = load ptr, ptr %as.addr, align 8
  call void @_ZN10polynomial7manager3imp16rational2numeralEjPK8rational(ptr noundef nonnull align 8 dereferenceable(824) %this1, i32 noundef %0, ptr noundef %1)
  %2 = load i32, ptr %sz.addr, align 4
  %m_rat2numeral = getelementptr inbounds %"struct.polynomial::manager::imp", ptr %this1, i32 0, i32 13
  %call = call noundef ptr @_ZNK6vectorI3mpzLb0EjE4dataEv(ptr noundef nonnull align 8 dereferenceable(8) %m_rat2numeral)
  %3 = load ptr, ptr %ms.addr, align 8
  %call2 = call noundef ptr @_ZN10polynomial7manager3imp13mk_polynomialEjP3mpzPKPNS_8monomialE(ptr noundef nonnull align 8 dereferenceable(824) %this1, i32 noundef %2, ptr noundef %call, ptr noundef %3)
  store ptr %call2, ptr %p, align 8
  call void @_ZN10polynomial7manager3imp13reset_tmp_as2Ev(ptr noundef nonnull align 8 dereferenceable(824) %this1)
  %4 = load ptr, ptr %p, align 8
  ret ptr %4
}

; Function Attrs: mustprogress uwtable
define hidden noundef ptr @_ZN10polynomial7manager13mk_polynomialEjPK8rationalPKPNS_8monomialE(ptr noundef nonnull align 8 dereferenceable(8) %this, i32 noundef %sz, ptr noundef %as, ptr noundef %ms) #5 align 2 {
entry:
  %this.addr = alloca ptr, align 8
  %sz.addr = alloca i32, align 4
  %as.addr = alloca ptr, align 8
  %ms.addr = alloca ptr, align 8
  store ptr %this, ptr %this.addr, align 8
  store i32 %sz, ptr %sz.addr, align 4
  store ptr %as, ptr %as.addr, align 8
  store ptr %ms, ptr %ms.addr, align 8
  %this1 = load ptr, ptr %this.addr, align 8
  %m_imp = getelementptr inbounds %"class.polynomial::manager", ptr %this1, i32 0, i32 0
  %0 = load ptr, ptr %m_imp, align 8
  %1 = load i32, ptr %sz.addr, align 4
  %2 = load ptr, ptr %as.addr, align 8
  %3 = load ptr, ptr %ms.addr, align 8
  %call = call noundef ptr @_ZN10polynomial7manager3imp13mk_polynomialEjPK8rationalPKPNS_8monomialE(ptr noundef nonnull align 8 dereferenceable(824) %0, i32 noundef %1, ptr noundef %2, ptr noundef %3)
  ret ptr %call
}