; Function Attrs: mustprogress uwtable
define hidden noundef ptr @_ZN10polynomial7manager13mk_polynomialEjPK8rationalPKPNS_8monomialE(ptr nocapture noundef nonnull readonly align 8 dereferenceable(8) %this, i32 noundef %sz, ptr noundef %as, ptr noundef %ms) local_unnamed_addr #4 align 2 {
entry:
  %0 = load ptr, ptr %this, align 8
  tail call void @_ZN10polynomial7manager3imp16rational2numeralEjPK8rational(ptr noundef nonnull align 8 dereferenceable(824) %0, i32 noundef %sz, ptr noundef %as)
  %m_rat2numeral.i = getelementptr inbounds i8, ptr %0, i64 560
  %1 = load ptr, ptr %m_rat2numeral.i, align 8
  %call2.i = tail call noundef ptr @_ZN10polynomial7manager3imp13mk_polynomialEjP3mpzPKPNS_8monomialE(ptr noundef nonnull align 8 dereferenceable(824) %0, i32 noundef %sz, ptr noundef %1, ptr noundef %ms)
  %2 = load ptr, ptr %m_rat2numeral.i, align 8
  %tobool.not.i.i.i = icmp eq ptr %2, null
  br i1 %tobool.not.i.i.i, label %_ZN10polynomial7manager3imp13mk_polynomialEjPK8rationalPKPNS_8monomialE.exit, label %if.then.i.i.i

if.then.i.i.i:                                    ; preds = %entry
  %arrayidx.i.i.i = getelementptr inbounds i8, ptr %2, i64 -4
  store i32 0, ptr %arrayidx.i.i.i, align 4
  br label %_ZN10polynomial7manager3imp13mk_polynomialEjPK8rationalPKPNS_8monomialE.exit

_ZN10polynomial7manager3imp13mk_polynomialEjPK8rationalPKPNS_8monomialE.exit: ; preds = %entry, %if.then.i.i.i
  ret ptr %call2.i
}